target datalayout = "e-m:e-p270:32:32-p271:32:32-p272:64:64-i64:64-i128:128-f80:128-n8:16:32:64-S128"
target triple = "x86_64-pc-linux-gnu"

%struct.cli_bm_off = type { ptr, ptr, i32, i32 }

; Function Attrs: nounwind uwtable
define void @cli_bm_freeoff(ptr noundef %0) #0 {
  %2 = alloca ptr, align 8
  store ptr %0, ptr %2, align 8
  %3 = load ptr, ptr %2, align 8
  %4 = getelementptr inbounds %struct.cli_bm_off, ptr %3, i32 0, i32 0
  %5 = load ptr, ptr %4, align 8
  call void @free(ptr noundef %5) #7
  %6 = load ptr, ptr %2, align 8
  %7 = getelementptr inbounds %struct.cli_bm_off, ptr %6, i32 0, i32 0
  store ptr null, ptr %7, align 8
  %8 = load ptr, ptr %2, align 8
  %9 = getelementptr inbounds %struct.cli_bm_off, ptr %8, i32 0, i32 1
  %10 = load ptr, ptr %9, align 8
  call void @free(ptr noundef %10) #7
  %11 = load ptr, ptr %2, align 8
  %12 = getelementptr inbounds %struct.cli_bm_off, ptr %11, i32 0, i32 1
  store ptr null, ptr %12, align 8
  ret void
}