; Function Attrs: mustprogress nounwind willreturn uwtable
define void @cli_bm_freeoff(ptr nocapture noundef %0) local_unnamed_addr #5 {
  %2 = load ptr, ptr %0, align 8
  tail call void @free(ptr noundef %2) #8
  store ptr null, ptr %0, align 8
  %3 = getelementptr inbounds i8, ptr %0, i64 8
  %4 = load ptr, ptr %3, align 8
  tail call void @free(ptr noundef %4) #8
  store ptr null, ptr %3, align 8
  ret void
}